target datalayout = "e-m:e-p270:32:32-p271:32:32-p272:64:64-i64:64-i128:128-f80:128-n8:16:32:64-S128"
target triple = "x86_64-pc-linux-gnu"

%"class.net::IPAddress" = type { %"class.std::vector" }
%"class.std::vector" = type { %"struct.std::_Vector_base" }
%"struct.std::_Vector_base" = type { %"struct.std::_Vector_base<unsigned char, std::allocator<unsigned char>>::_Vector_impl" }
%"struct.std::_Vector_base<unsigned char, std::allocator<unsigned char>>::_Vector_impl" = type { %"struct.std::_Vector_base<unsigned char, std::allocator<unsigned char>>::_Vector_impl_data" }
%"struct.std::_Vector_base<unsigned char, std::allocator<unsigned char>>::_Vector_impl_data" = type { ptr, ptr, ptr }
%"class.logging::CheckOpResult" = type { ptr }
%"class.logging::LogMessage" = type <{ i32, [4 x i8], %"class.std::__cxx11::basic_ostringstream", i64, ptr, i32, [4 x i8] }>
%"class.std::__cxx11::basic_ostringstream" = type { %"class.std::basic_ostream.base", %"class.std::__cxx11::basic_stringbuf", %"class.std::basic_ios" }
%"class.std::basic_ostream.base" = type { ptr }
%"class.std::__cxx11::basic_stringbuf" = type { %"class.std::basic_streambuf", i32, %"class.std::__cxx11::basic_string" }
%"class.std::basic_streambuf" = type { ptr, ptr, ptr, ptr, ptr, ptr, ptr, %"class.std::locale" }
%"class.std::locale" = type { ptr }
%"class.std::__cxx11::basic_string" = type { %"struct.std::__cxx11::basic_string<char>::_Alloc_hider", i64, %union.anon }
%"struct.std::__cxx11::basic_string<char>::_Alloc_hider" = type { ptr }
%union.anon = type { i64, [8 x i8] }
%"class.std::basic_ios" = type { %"class.std::ios_base", ptr, i8, i8, ptr, ptr, ptr, ptr }
%"class.std::ios_base" = type { ptr, i64, i64, i32, i32, i32, ptr, %"struct.std::ios_base::_Words", [8 x %"struct.std::ios_base::_Words"], i32, ptr, %"class.std::locale" }
%"struct.std::ios_base::_Words" = type { ptr, i64 }

@.str.2 = private unnamed_addr constant [120 x i8] c"generated/home/dtcxzyw/WorkSpace/Projects/compilers/llvm-opt-benchmark/bench/libquic/libquic/src/net/base/ip_address.cc\00", align 1

; Function Attrs: mustprogress nounwind uwtable
define linkonce_odr noundef i64 @_ZNKSt6vectorIhSaIhEE4sizeEv(ptr noundef nonnull align 8 dereferenceable(24) %0) #0 comdat align 2 {
  %2 = alloca ptr, align 8
  store ptr %0, ptr %2, align 8, !tbaa !8
  %3 = load ptr, ptr %2, align 8
  %4 = getelementptr inbounds nuw %"struct.std::_Vector_base", ptr %3, i32 0, i32 0
  %5 = getelementptr inbounds nuw %"struct.std::_Vector_base<unsigned char, std::allocator<unsigned char>>::_Vector_impl_data", ptr %4, i32 0, i32 1
  %6 = load ptr, ptr %5, align 8, !tbaa !13
  %7 = getelementptr inbounds nuw %"struct.std::_Vector_base", ptr %3, i32 0, i32 0
  %8 = getelementptr inbounds nuw %"struct.std::_Vector_base<unsigned char, std::allocator<unsigned char>>::_Vector_impl_data", ptr %7, i32 0, i32 0
  %9 = load ptr, ptr %8, align 8, !tbaa !10
  %10 = ptrtoint ptr %6 to i64
  %11 = ptrtoint ptr %9 to i64
  %12 = sub i64 %10, %11
  ret i64 %12
}

; Function Attrs: mustprogress nounwind uwtable
define linkonce_odr noundef nonnull align 1 dereferenceable(1) ptr @_ZNKSt6vectorIhSaIhEEixEm(ptr noundef nonnull align 8 dereferenceable(24) %0, i64 noundef %1) #0 comdat align 2 {
  %3 = alloca ptr, align 8
  %4 = alloca i64, align 8
  store ptr %0, ptr %3, align 8, !tbaa !8
  store i64 %1, ptr %4, align 8, !tbaa !15
  %5 = load ptr, ptr %3, align 8
  %6 = getelementptr inbounds nuw %"struct.std::_Vector_base", ptr %5, i32 0, i32 0
  %7 = getelementptr inbounds nuw %"struct.std::_Vector_base<unsigned char, std::allocator<unsigned char>>::_Vector_impl_data", ptr %6, i32 0, i32 0
  %8 = load ptr, ptr %7, align 8, !tbaa !10
  %9 = load i64, ptr %4, align 8, !tbaa !15
  %10 = getelementptr inbounds nuw i8, ptr %8, i64 %9
  ret ptr %10
}

; Function Attrs: mustprogress nounwind uwtable
define linkonce_odr noundef nonnull align 8 dereferenceable(24) ptr @_ZNK3net9IPAddress5bytesEv(ptr noundef nonnull align 8 dereferenceable(24) %0) #0 comdat align 2 {
  %2 = alloca ptr, align 8
  store ptr %0, ptr %2, align 8, !tbaa !3
  %3 = load ptr, ptr %2, align 8
  %4 = getelementptr inbounds nuw %"class.net::IPAddress", ptr %3, i32 0, i32 0
  ret ptr %4
}

; Function Attrs: mustprogress nounwind uwtable
define linkonce_odr noundef i64 @_ZNK3net9IPAddress4sizeEv(ptr noundef nonnull align 8 dereferenceable(24) %0) #0 comdat align 2 {
  %2 = alloca ptr, align 8
  store ptr %0, ptr %2, align 8, !tbaa !3
  %3 = load ptr, ptr %2, align 8
  %4 = getelementptr inbounds nuw %"class.net::IPAddress", ptr %3, i32 0, i32 0
  %5 = call noundef i64 @_ZNKSt6vectorIhSaIhEE4sizeEv(ptr noundef nonnull align 8 dereferenceable(24) %4) #16
  ret i64 %5
}

; Function Attrs: mustprogress nounwind uwtable
define linkonce_odr noundef nonnull align 8 dereferenceable(8) ptr @_ZN7logging10LogMessage6streamEv(ptr noundef nonnull align 8 dereferenceable(404) %0) #0 comdat align 2 {
  %2 = alloca ptr, align 8
  store ptr %0, ptr %2, align 8, !tbaa !51
  %3 = load ptr, ptr %2, align 8
  %4 = getelementptr inbounds nuw %"class.logging::LogMessage", ptr %3, i32 0, i32 2
  ret ptr %4
}

; Function Attrs: mustprogress nounwind uwtable
define linkonce_odr noundef ptr @_ZN7logging13CheckOpResult7messageB5cxx11Ev(ptr noundef nonnull align 8 dereferenceable(8) %0) #0 comdat align 2 {
  %2 = alloca ptr, align 8
  store ptr %0, ptr %2, align 8, !tbaa !47
  %3 = load ptr, ptr %2, align 8
  %4 = getelementptr inbounds nuw %"class.logging::CheckOpResult", ptr %3, i32 0, i32 0
  %5 = load ptr, ptr %4, align 8, !tbaa !49
  ret ptr %5
}

; Function Attrs: mustprogress nounwind uwtable
define linkonce_odr noundef zeroext i1 @_ZNK7logging13CheckOpResultcvbEv(ptr noundef nonnull align 8 dereferenceable(8) %0) #0 comdat align 2 {
  %2 = alloca ptr, align 8
  store ptr %0, ptr %2, align 8, !tbaa !47
  %3 = load ptr, ptr %2, align 8
  %4 = getelementptr inbounds nuw %"class.logging::CheckOpResult", ptr %3, i32 0, i32 0
  %5 = load ptr, ptr %4, align 8, !tbaa !49
  %6 = icmp ne ptr %5, null
  %7 = xor i1 %6, true
  ret i1 %7
}

; Function Attrs: mustprogress nounwind uwtable
define linkonce_odr void @_ZN7logging13CheckOpResultC2EPNSt7__cxx1112basic_stringIcSt11char_traitsIcESaIcEEE(ptr noundef nonnull align 8 dereferenceable(8) %0, ptr noundef %1) unnamed_addr #0 comdat align 2 {
  %3 = alloca ptr, align 8
  %4 = alloca ptr, align 8
  store ptr %0, ptr %3, align 8, !tbaa !47
  store ptr %1, ptr %4, align 8, !tbaa !36
  %5 = load ptr, ptr %3, align 8
  %6 = getelementptr inbounds nuw %"class.logging::CheckOpResult", ptr %5, i32 0, i32 0
  %7 = load ptr, ptr %4, align 8, !tbaa !36
  store ptr %7, ptr %6, align 8, !tbaa !49
  ret void
}

; Function Attrs: mustprogress uwtable
define noundef i32 @_ZN3net18CommonPrefixLengthERKNS_9IPAddressES2_(ptr noundef nonnull align 8 dereferenceable(24) %0, ptr noundef nonnull align 8 dereferenceable(24) %1) #1 personality ptr @__gxx_personality_v0 {
  %3 = alloca i32, align 4
  %4 = alloca ptr, align 8
  %5 = alloca ptr, align 8
  %6 = alloca %"class.logging::CheckOpResult", align 8
  %7 = alloca %"class.logging::LogMessage", align 8
  %8 = alloca ptr, align 8
  %9 = alloca i32, align 4
  %10 = alloca i64, align 8
  %11 = alloca i32, align 4
  %12 = alloca i32, align 4
  %13 = alloca i32, align 4
  store ptr %0, ptr %4, align 8, !tbaa !3
  store ptr %1, ptr %5, align 8, !tbaa !3
  call void @llvm.lifetime.start.p0(i64 8, ptr %6) #16
  call void @_ZN7logging13CheckOpResultC2EPNSt7__cxx1112basic_stringIcSt11char_traitsIcESaIcEEE(ptr noundef nonnull align 8 dereferenceable(8) %6, ptr noundef null)
  %14 = call noundef zeroext i1 @_ZNK7logging13CheckOpResultcvbEv(ptr noundef nonnull align 8 dereferenceable(8) %6)
  br i1 %14, label %15, label %16

15:                                               ; preds = %2
  br label %24

16:                                               ; preds = %2
  call void @llvm.lifetime.start.p0(i64 408, ptr %7) #16
  %17 = call noundef ptr @_ZN7logging13CheckOpResult7messageB5cxx11Ev(ptr noundef nonnull align 8 dereferenceable(8) %6)
  call void @_ZN7logging10LogMessageC1EPKciiPNSt7__cxx1112basic_stringIcSt11char_traitsIcESaIcEEE(ptr noundef nonnull align 8 dereferenceable(404) %7, ptr noundef @.str.2, i32 noundef 385, i32 noundef 0, ptr noundef %17)
  %18 = invoke noundef nonnull align 8 dereferenceable(8) ptr @_ZN7logging10LogMessage6streamEv(ptr noundef nonnull align 8 dereferenceable(404) %7)
          to label %19 unwind label %20

19:                                               ; preds = %16
  call void @_ZN7logging10LogMessageD1Ev(ptr noundef nonnull align 8 dereferenceable(404) %7) #16
  call void @llvm.lifetime.end.p0(i64 408, ptr %7) #16
  br label %24

20:                                               ; preds = %16
  %21 = landingpad { ptr, i32 }
          cleanup
  %22 = extractvalue { ptr, i32 } %21, 0
  store ptr %22, ptr %8, align 8
  %23 = extractvalue { ptr, i32 } %21, 1
  store i32 %23, ptr %9, align 4
  call void @_ZN7logging10LogMessageD1Ev(ptr noundef nonnull align 8 dereferenceable(404) %7) #16
  call void @llvm.lifetime.end.p0(i64 408, ptr %7) #16
  call void @llvm.lifetime.end.p0(i64 8, ptr %6) #16
  br label %88

24:                                               ; preds = %19, %15
  call void @llvm.lifetime.end.p0(i64 8, ptr %6) #16
  call void @llvm.lifetime.start.p0(i64 8, ptr %10) #16
  store i64 0, ptr %10, align 8, !tbaa !15
  br label %25

25:                                               ; preds = %76, %24
  %26 = load i64, ptr %10, align 8, !tbaa !15
  %27 = load ptr, ptr %4, align 8, !tbaa !3
  %28 = call noundef i64 @_ZNK3net9IPAddress4sizeEv(ptr noundef nonnull align 8 dereferenceable(24) %27)
  %29 = icmp ult i64 %26, %28
  br i1 %29, label %31, label %30

30:                                               ; preds = %25
  store i32 2, ptr %11, align 4
  br label %79

31:                                               ; preds = %25
  call void @llvm.lifetime.start.p0(i64 4, ptr %12) #16
  %32 = load ptr, ptr %4, align 8, !tbaa !3
  %33 = call noundef nonnull align 8 dereferenceable(24) ptr @_ZNK3net9IPAddress5bytesEv(ptr noundef nonnull align 8 dereferenceable(24) %32)
  %34 = load i64, ptr %10, align 8, !tbaa !15
  %35 = call noundef nonnull align 1 dereferenceable(1) ptr @_ZNKSt6vectorIhSaIhEEixEm(ptr noundef nonnull align 8 dereferenceable(24) %33, i64 noundef %34) #16
  %36 = load i8, ptr %35, align 1, !tbaa !19
  %37 = zext i8 %36 to i32
  %38 = load ptr, ptr %5, align 8, !tbaa !3
  %39 = call noundef nonnull align 8 dereferenceable(24) ptr @_ZNK3net9IPAddress5bytesEv(ptr noundef nonnull align 8 dereferenceable(24) %38)
  %40 = load i64, ptr %10, align 8, !tbaa !15
  %41 = call noundef nonnull align 1 dereferenceable(1) ptr @_ZNKSt6vectorIhSaIhEEixEm(ptr noundef nonnull align 8 dereferenceable(24) %39, i64 noundef %40) #16
  %42 = load i8, ptr %41, align 1, !tbaa !19
  %43 = zext i8 %42 to i32
  %44 = xor i32 %37, %43
  store i32 %44, ptr %12, align 4, !tbaa !57
  %45 = load i32, ptr %12, align 4, !tbaa !57
  %46 = icmp ne i32 %45, 0
  br i1 %46, label %48, label %47

47:                                               ; preds = %31
  store i32 4, ptr %11, align 4
  br label %73

48:                                               ; preds = %31
  call void @llvm.lifetime.start.p0(i64 4, ptr %13) #16
  store i32 0, ptr %13, align 4, !tbaa !57
  br label %49

49:                                               ; preds = %67, %48
  %50 = load i32, ptr %13, align 4, !tbaa !57
  %51 = icmp ult i32 %50, 8
  br i1 %51, label %53, label %52

52:                                               ; preds = %49
  store i32 5, ptr %11, align 4
  br label %70

53:                                               ; preds = %49
  %54 = load i32, ptr %12, align 4, !tbaa !57
  %55 = and i32 %54, 128
  %56 = icmp ne i32 %55, 0
  br i1 %56, label %57, label %64

57:                                               ; preds = %53
  %58 = load i64, ptr %10, align 8, !tbaa !15
  %59 = mul i64 %58, 8
  %60 = load i32, ptr %13, align 4, !tbaa !57
  %61 = zext i32 %60 to i64
  %62 = add i64 %59, %61
  %63 = trunc i64 %62 to i32
  store i32 %63, ptr %3, align 4
  store i32 1, ptr %11, align 4
  br label %70

64:                                               ; preds = %53
  %65 = load i32, ptr %12, align 4, !tbaa !57
  %66 = shl i32 %65, 1
  store i32 %66, ptr %12, align 4, !tbaa !57
  br label %67

67:                                               ; preds = %64
  %68 = load i32, ptr %13, align 4, !tbaa !57
  %69 = add i32 %68, 1
  store i32 %69, ptr %13, align 4, !tbaa !57
  br label %49, !llvm.loop !68

70:                                               ; preds = %57, %52
  call void @llvm.lifetime.end.p0(i64 4, ptr %13) #16
  %71 = load i32, ptr %11, align 4
  switch i32 %71, label %73 [
    i32 5, label %72
  ]

72:                                               ; preds = %70
  store i32 0, ptr %11, align 4
  br label %73

73:                                               ; preds = %72, %70, %47
  call void @llvm.lifetime.end.p0(i64 4, ptr %12) #16
  %74 = load i32, ptr %11, align 4
  switch i32 %74, label %79 [
    i32 0, label %75
    i32 4, label %76
  ]

75:                                               ; preds = %73
  br label %76

76:                                               ; preds = %75, %73
  %77 = load i64, ptr %10, align 8, !tbaa !15
  %78 = add i64 %77, 1
  store i64 %78, ptr %10, align 8, !tbaa !15
  br label %25, !llvm.loop !69

79:                                               ; preds = %73, %30
  call void @llvm.lifetime.end.p0(i64 8, ptr %10) #16
  %80 = load i32, ptr %11, align 4
  switch i32 %80, label %93 [
    i32 2, label %81
    i32 1, label %86
  ]

81:                                               ; preds = %79
  %82 = load ptr, ptr %4, align 8, !tbaa !3
  %83 = call noundef i64 @_ZNK3net9IPAddress4sizeEv(ptr noundef nonnull align 8 dereferenceable(24) %82)
  %84 = mul i64 %83, 8
  %85 = trunc i64 %84 to i32
  store i32 %85, ptr %3, align 4
  br label %86

86:                                               ; preds = %81, %79
  %87 = load i32, ptr %3, align 4
  ret i32 %87

88:                                               ; preds = %20
  %89 = load ptr, ptr %8, align 8
  %90 = load i32, ptr %9, align 4
  %91 = insertvalue { ptr, i32 } poison, ptr %89, 0
  %92 = insertvalue { ptr, i32 } %91, i32 %90, 1
  resume { ptr, i32 } %92

93:                                               ; preds = %79
  unreachable
}