; Function Attrs: mustprogress nofree norecurse nosync nounwind willreturn memory(read, inaccessiblemem: none) uwtable
define noundef i32 @_ZN3net18CommonPrefixLengthERKNS_9IPAddressES2_(ptr noundef nonnull readonly align 8 captures(none) dereferenceable(24) %0, ptr noundef nonnull readonly align 8 captures(none) dereferenceable(24) %1) local_unnamed_addr #5 personality ptr @__gxx_personality_v0 {
  %3 = getelementptr inbounds nuw i8, ptr %0, i64 8
  %4 = load ptr, ptr %3, align 8, !tbaa !3
  %5 = load ptr, ptr %0, align 8, !tbaa !9
  %6 = ptrtoint ptr %4 to i64
  %7 = ptrtoint ptr %5 to i64
  %8 = sub i64 %6, %7
  %.not41 = icmp eq ptr %4, %5
  br i1 %.not41, label %._crit_edge, label %.lr.ph

.lr.ph:                                           ; preds = %2
  %9 = load ptr, ptr %1, align 8, !tbaa !9
  br label %10

10:                                               ; preds = %.lr.ph, %.loopexit
  %.02040 = phi i64 [ 0, %.lr.ph ], [ %23, %.loopexit ]
  %11 = getelementptr inbounds nuw i8, ptr %5, i64 %.02040
  %12 = load i8, ptr %11, align 1, !tbaa !13
  %13 = getelementptr inbounds nuw i8, ptr %9, i64 %.02040
  %14 = load i8, ptr %13, align 1, !tbaa !13
  %.not = icmp eq i8 %12, %14
  br i1 %.not, label %.loopexit, label %15

15:                                               ; preds = %10
  %16 = xor i8 %14, %12
  %17 = zext i8 %16 to i32
  br label %18

18:                                               ; preds = %15, %20
  %.039 = phi i32 [ 0, %15 ], [ %22, %20 ]
  %.01838 = phi i32 [ %17, %15 ], [ %21, %20 ]
  %19 = and i32 %.01838, 128
  %.not25 = icmp eq i32 %19, 0
  br i1 %.not25, label %20, label %24

20:                                               ; preds = %18
  %21 = shl i32 %.01838, 1
  %22 = add nuw nsw i32 %.039, 1
  %exitcond = icmp eq i32 %22, 8
  br i1 %exitcond, label %.loopexit, label %18, !llvm.loop !46

.loopexit:                                        ; preds = %20, %10
  %23 = add nuw i64 %.02040, 1
  %exitcond44.not = icmp eq i64 %23, %8
  br i1 %exitcond44.not, label %._crit_edge, label %10, !llvm.loop !47

24:                                               ; preds = %18
  %.020.tr = trunc i64 %.02040 to i32
  %25 = shl i32 %.020.tr, 3
  %26 = add nuw nsw i32 %.039, %25
  br label %28

._crit_edge:                                      ; preds = %.loopexit, %2
  %.tr = trunc i64 %8 to i32
  %27 = shl i32 %.tr, 3
  br label %28

28:                                               ; preds = %24, %._crit_edge
  %.4 = phi i32 [ %26, %24 ], [ %27, %._crit_edge ]
  ret i32 %.4
}